target datalayout = "e-m:e-p270:32:32-p271:32:32-p272:64:64-i64:64-i128:128-f80:128-n8:16:32:64-S128"
target triple = "x86_64-pc-linux-gnu"

%struct.git_attr = type { i32, [0 x i8] }
%struct.attr_check = type { i32, i32, ptr, i32, ptr, ptr }
%struct.attr_check_item = type { ptr, ptr }
%struct.all_attrs_item = type { ptr, ptr, ptr }

@git_attr__unknown = internal constant [17 x i8] c"(builtin)unknown\00", align 16
@.str.19 = private unnamed_addr constant [27 x i8] c"size_t overflow: %lu * %lu\00", align 1

; Function Attrs: inlinehint nounwind uwtable
define internal i64 @st_mult(i64 noundef %0, i64 noundef %1) #5 {
  %3 = alloca i64, align 8
  %4 = alloca i64, align 8
  store i64 %0, ptr %3, align 8, !tbaa !11
  store i64 %1, ptr %4, align 8, !tbaa !11
  %5 = load i64, ptr %3, align 8, !tbaa !11
  %6 = icmp ne i64 %5, 0
  br i1 %6, label %7, label %15

7:                                                ; preds = %2
  %8 = load i64, ptr %4, align 8, !tbaa !11
  %9 = load i64, ptr %3, align 8, !tbaa !11
  %10 = udiv i64 -1, %9
  %11 = icmp ugt i64 %8, %10
  br i1 %11, label %12, label %15

12:                                               ; preds = %7
  %13 = load i64, ptr %3, align 8, !tbaa !11
  %14 = load i64, ptr %4, align 8, !tbaa !11
  call void (ptr, ...) @die(ptr noundef @.str.19, i64 noundef %13, i64 noundef %14) #12
  unreachable

15:                                               ; preds = %7, %2
  %16 = load i64, ptr %3, align 8, !tbaa !11
  %17 = load i64, ptr %4, align 8, !tbaa !11
  %18 = mul i64 %16, %17
  ret i64 %18
}

; Function Attrs: nounwind uwtable
define dso_local ptr @attr_check_append(ptr noundef %0, ptr noundef %1) #0 {
  %3 = alloca ptr, align 8
  %4 = alloca ptr, align 8
  %5 = alloca ptr, align 8
  store ptr %0, ptr %3, align 8, !tbaa !32
  store ptr %1, ptr %4, align 8, !tbaa !4
  call void @llvm.lifetime.start.p0(i64 8, ptr %5) #11
  br label %6

6:                                                ; preds = %2
  %7 = load ptr, ptr %3, align 8, !tbaa !32
  %8 = getelementptr inbounds nuw %struct.attr_check, ptr %7, i32 0, i32 0
  %9 = load i32, ptr %8, align 8, !tbaa !40
  %10 = add nsw i32 %9, 1
  %11 = load ptr, ptr %3, align 8, !tbaa !32
  %12 = getelementptr inbounds nuw %struct.attr_check, ptr %11, i32 0, i32 1
  %13 = load i32, ptr %12, align 4, !tbaa !45
  %14 = icmp sgt i32 %10, %13
  br i1 %14, label %15, label %55

15:                                               ; preds = %6
  %16 = load ptr, ptr %3, align 8, !tbaa !32
  %17 = getelementptr inbounds nuw %struct.attr_check, ptr %16, i32 0, i32 1
  %18 = load i32, ptr %17, align 4, !tbaa !45
  %19 = add nsw i32 %18, 16
  %20 = mul nsw i32 %19, 3
  %21 = sdiv i32 %20, 2
  %22 = load ptr, ptr %3, align 8, !tbaa !32
  %23 = getelementptr inbounds nuw %struct.attr_check, ptr %22, i32 0, i32 0
  %24 = load i32, ptr %23, align 8, !tbaa !40
  %25 = add nsw i32 %24, 1
  %26 = icmp slt i32 %21, %25
  br i1 %26, label %27, label %34

27:                                               ; preds = %15
  %28 = load ptr, ptr %3, align 8, !tbaa !32
  %29 = getelementptr inbounds nuw %struct.attr_check, ptr %28, i32 0, i32 0
  %30 = load i32, ptr %29, align 8, !tbaa !40
  %31 = add nsw i32 %30, 1
  %32 = load ptr, ptr %3, align 8, !tbaa !32
  %33 = getelementptr inbounds nuw %struct.attr_check, ptr %32, i32 0, i32 1
  store i32 %31, ptr %33, align 4, !tbaa !45
  br label %43

34:                                               ; preds = %15
  %35 = load ptr, ptr %3, align 8, !tbaa !32
  %36 = getelementptr inbounds nuw %struct.attr_check, ptr %35, i32 0, i32 1
  %37 = load i32, ptr %36, align 4, !tbaa !45
  %38 = add nsw i32 %37, 16
  %39 = mul nsw i32 %38, 3
  %40 = sdiv i32 %39, 2
  %41 = load ptr, ptr %3, align 8, !tbaa !32
  %42 = getelementptr inbounds nuw %struct.attr_check, ptr %41, i32 0, i32 1
  store i32 %40, ptr %42, align 4, !tbaa !45
  br label %43

43:                                               ; preds = %34, %27
  %44 = load ptr, ptr %3, align 8, !tbaa !32
  %45 = getelementptr inbounds nuw %struct.attr_check, ptr %44, i32 0, i32 2
  %46 = load ptr, ptr %45, align 8, !tbaa !46
  %47 = load ptr, ptr %3, align 8, !tbaa !32
  %48 = getelementptr inbounds nuw %struct.attr_check, ptr %47, i32 0, i32 1
  %49 = load i32, ptr %48, align 4, !tbaa !45
  %50 = sext i32 %49 to i64
  %51 = call i64 @st_mult(i64 noundef 16, i64 noundef %50)
  %52 = call ptr @xrealloc(ptr noundef %46, i64 noundef %51)
  %53 = load ptr, ptr %3, align 8, !tbaa !32
  %54 = getelementptr inbounds nuw %struct.attr_check, ptr %53, i32 0, i32 2
  store ptr %52, ptr %54, align 8, !tbaa !46
  br label %55

55:                                               ; preds = %43, %6
  br label %56

56:                                               ; preds = %55
  br label %57

57:                                               ; preds = %56
  %58 = load ptr, ptr %3, align 8, !tbaa !32
  %59 = getelementptr inbounds nuw %struct.attr_check, ptr %58, i32 0, i32 2
  %60 = load ptr, ptr %59, align 8, !tbaa !46
  %61 = load ptr, ptr %3, align 8, !tbaa !32
  %62 = getelementptr inbounds nuw %struct.attr_check, ptr %61, i32 0, i32 0
  %63 = load i32, ptr %62, align 8, !tbaa !40
  %64 = add nsw i32 %63, 1
  store i32 %64, ptr %62, align 8, !tbaa !40
  %65 = sext i32 %63 to i64
  %66 = getelementptr inbounds %struct.attr_check_item, ptr %60, i64 %65
  store ptr %66, ptr %5, align 8, !tbaa !51
  %67 = load ptr, ptr %4, align 8, !tbaa !4
  %68 = load ptr, ptr %5, align 8, !tbaa !51
  %69 = getelementptr inbounds nuw %struct.attr_check_item, ptr %68, i32 0, i32 0
  store ptr %67, ptr %69, align 8, !tbaa !47
  %70 = load ptr, ptr %5, align 8, !tbaa !51
  call void @llvm.lifetime.end.p0(i64 8, ptr %5) #11
  ret ptr %70
}

; Function Attrs: nounwind uwtable
define dso_local ptr @git_attr(ptr noundef %0) #0 {
  %2 = alloca ptr, align 8
  store ptr %0, ptr %2, align 8, !tbaa !9
  %3 = load ptr, ptr %2, align 8, !tbaa !9
  %4 = load ptr, ptr %2, align 8, !tbaa !9
  %5 = call i64 @strlen(ptr noundef %4) #10
  %6 = call ptr @git_attr_internal(ptr noundef %3, i64 noundef %5)
  ret ptr %6
}

; Function Attrs: nounwind uwtable
define dso_local void @attr_check_reset(ptr noundef %0) #0 {
  %2 = alloca ptr, align 8
  store ptr %0, ptr %2, align 8, !tbaa !32
  %3 = load ptr, ptr %2, align 8, !tbaa !32
  %4 = getelementptr inbounds nuw %struct.attr_check, ptr %3, i32 0, i32 0
  store i32 0, ptr %4, align 8, !tbaa !40
  ret void
}

; Function Attrs: nounwind uwtable
define dso_local void @git_all_attrs(ptr noundef %0, ptr noundef %1, ptr noundef %2) #0 {
  %4 = alloca ptr, align 8
  %5 = alloca ptr, align 8
  %6 = alloca ptr, align 8
  %7 = alloca i32, align 4
  %8 = alloca ptr, align 8
  %9 = alloca ptr, align 8
  %10 = alloca ptr, align 8
  %11 = alloca ptr, align 8
  %12 = alloca i32, align 4
  store ptr %0, ptr %4, align 8, !tbaa !64
  store ptr %1, ptr %5, align 8, !tbaa !9
  store ptr %2, ptr %6, align 8, !tbaa !32
  call void @llvm.lifetime.start.p0(i64 4, ptr %7) #11
  call void @llvm.lifetime.start.p0(i64 8, ptr %8) #11
  %13 = call ptr @default_attr_source()
  store ptr %13, ptr %8, align 8, !tbaa !66
  %14 = load ptr, ptr %6, align 8, !tbaa !32
  call void @attr_check_reset(ptr noundef %14)
  %15 = load ptr, ptr %4, align 8, !tbaa !64
  %16 = load ptr, ptr %8, align 8, !tbaa !66
  %17 = load ptr, ptr %5, align 8, !tbaa !9
  %18 = load ptr, ptr %6, align 8, !tbaa !32
  call void @collect_some_attrs(ptr noundef %15, ptr noundef %16, ptr noundef %17, ptr noundef %18)
  store i32 0, ptr %7, align 4, !tbaa !13
  br label %19

19:                                               ; preds = %61, %3
  %20 = load i32, ptr %7, align 4, !tbaa !13
  %21 = load ptr, ptr %6, align 8, !tbaa !32
  %22 = getelementptr inbounds nuw %struct.attr_check, ptr %21, i32 0, i32 3
  %23 = load i32, ptr %22, align 8, !tbaa !53
  %24 = icmp slt i32 %20, %23
  br i1 %24, label %25, label %64

25:                                               ; preds = %19
  call void @llvm.lifetime.start.p0(i64 8, ptr %9) #11
  %26 = load ptr, ptr %6, align 8, !tbaa !32
  %27 = getelementptr inbounds nuw %struct.attr_check, ptr %26, i32 0, i32 4
  %28 = load ptr, ptr %27, align 8, !tbaa !52
  %29 = load i32, ptr %7, align 4, !tbaa !13
  %30 = sext i32 %29 to i64
  %31 = getelementptr inbounds %struct.all_attrs_item, ptr %28, i64 %30
  %32 = getelementptr inbounds nuw %struct.all_attrs_item, ptr %31, i32 0, i32 0
  %33 = load ptr, ptr %32, align 8, !tbaa !70
  %34 = getelementptr inbounds nuw %struct.git_attr, ptr %33, i32 0, i32 1
  %35 = getelementptr inbounds [0 x i8], ptr %34, i64 0, i64 0
  store ptr %35, ptr %9, align 8, !tbaa !9
  call void @llvm.lifetime.start.p0(i64 8, ptr %10) #11
  %36 = load ptr, ptr %6, align 8, !tbaa !32
  %37 = getelementptr inbounds nuw %struct.attr_check, ptr %36, i32 0, i32 4
  %38 = load ptr, ptr %37, align 8, !tbaa !52
  %39 = load i32, ptr %7, align 4, !tbaa !13
  %40 = sext i32 %39 to i64
  %41 = getelementptr inbounds %struct.all_attrs_item, ptr %38, i64 %40
  %42 = getelementptr inbounds nuw %struct.all_attrs_item, ptr %41, i32 0, i32 1
  %43 = load ptr, ptr %42, align 8, !tbaa !68
  store ptr %43, ptr %10, align 8, !tbaa !9
  call void @llvm.lifetime.start.p0(i64 8, ptr %11) #11
  %44 = load ptr, ptr %10, align 8, !tbaa !9
  %45 = icmp eq ptr %44, null
  br i1 %45, label %49, label %46

46:                                               ; preds = %25
  %47 = load ptr, ptr %10, align 8, !tbaa !9
  %48 = icmp eq ptr %47, @git_attr__unknown
  br i1 %48, label %49, label %50

49:                                               ; preds = %46, %25
  store i32 4, ptr %12, align 4
  br label %58

50:                                               ; preds = %46
  %51 = load ptr, ptr %6, align 8, !tbaa !32
  %52 = load ptr, ptr %9, align 8, !tbaa !9
  %53 = call ptr @git_attr(ptr noundef %52)
  %54 = call ptr @attr_check_append(ptr noundef %51, ptr noundef %53)
  store ptr %54, ptr %11, align 8, !tbaa !51
  %55 = load ptr, ptr %10, align 8, !tbaa !9
  %56 = load ptr, ptr %11, align 8, !tbaa !51
  %57 = getelementptr inbounds nuw %struct.attr_check_item, ptr %56, i32 0, i32 1
  store ptr %55, ptr %57, align 8, !tbaa !71
  store i32 0, ptr %12, align 4
  br label %58

58:                                               ; preds = %50, %49
  call void @llvm.lifetime.end.p0(i64 8, ptr %11) #11
  call void @llvm.lifetime.end.p0(i64 8, ptr %10) #11
  call void @llvm.lifetime.end.p0(i64 8, ptr %9) #11
  %59 = load i32, ptr %12, align 4
  switch i32 %59, label %65 [
    i32 0, label %60
    i32 4, label %61
  ]

60:                                               ; preds = %58
  br label %61

61:                                               ; preds = %60, %58
  %62 = load i32, ptr %7, align 4, !tbaa !13
  %63 = add nsw i32 %62, 1
  store i32 %63, ptr %7, align 4, !tbaa !13
  br label %19, !llvm.loop !75

64:                                               ; preds = %19
  call void @llvm.lifetime.end.p0(i64 8, ptr %8) #11
  call void @llvm.lifetime.end.p0(i64 4, ptr %7) #11
  ret void

65:                                               ; preds = %58
  unreachable
}