; Function Attrs: nounwind uwtable
define dso_local void @git_all_attrs(ptr noundef %0, ptr noundef %1, ptr noundef captures(none) initializes((0, 4)) %2) local_unnamed_addr #1 {
  %4 = tail call fastcc ptr @default_attr_source()
  store i32 0, ptr %2, align 8, !tbaa !45
  tail call fastcc void @collect_some_attrs(ptr noundef %0, ptr noundef %4, ptr noundef %1, ptr noundef nonnull %2)
  %5 = getelementptr inbounds nuw i8, ptr %2, i64 16
  %6 = load i32, ptr %5, align 8, !tbaa !56
  %7 = icmp sgt i32 %6, 0
  br i1 %7, label %.lr.ph, label %._crit_edge

.lr.ph:                                           ; preds = %3
  %8 = getelementptr inbounds nuw i8, ptr %2, i64 24
  %9 = getelementptr inbounds nuw i8, ptr %2, i64 4
  %10 = getelementptr inbounds nuw i8, ptr %2, i64 8
  br label %11

11:                                               ; preds = %.lr.ph, %42
  %12 = phi i32 [ %6, %.lr.ph ], [ %43, %42 ]
  %indvars.iv = phi i64 [ 0, %.lr.ph ], [ %indvars.iv.next, %42 ]
  %13 = load ptr, ptr %8, align 8, !tbaa !55
  %14 = getelementptr inbounds nuw %struct.all_attrs_item, ptr %13, i64 %indvars.iv
  %15 = getelementptr inbounds nuw i8, ptr %14, i64 8
  %16 = load ptr, ptr %15, align 8, !tbaa !72
  %17 = icmp eq ptr %16, null
  %18 = icmp eq ptr %16, @git_attr__unknown
  %or.cond = or i1 %17, %18
  br i1 %or.cond, label %42, label %19

19:                                               ; preds = %11
  %20 = load ptr, ptr %14, align 8, !tbaa !74
  %21 = getelementptr inbounds nuw i8, ptr %20, i64 4
  %22 = tail call i64 @strlen(ptr noundef nonnull dereferenceable(1) %21) #20
  %23 = tail call fastcc ptr @git_attr_internal(ptr noundef nonnull %21, i64 noundef %22)
  %24 = load i32, ptr %2, align 8, !tbaa !45
  %25 = load i32, ptr %9, align 4, !tbaa !50
  %.not.i = icmp slt i32 %24, %25
  br i1 %.not.i, label %._crit_edge.i, label %26

._crit_edge.i:                                    ; preds = %19
  %.pre.i = load ptr, ptr %10, align 8, !tbaa !51
  br label %attr_check_append.exit

26:                                               ; preds = %19
  %27 = add nsw i32 %24, 1
  %28 = mul i32 %25, 3
  %29 = add i32 %28, 48
  %30 = sdiv i32 %29, 2
  %.not18.i = icmp sgt i32 %30, %24
  %..i = select i1 %.not18.i, i32 %30, i32 %27
  store i32 %..i, ptr %9, align 4, !tbaa !50
  %31 = sext i32 %..i to i64
  %mul.ov.i.i = icmp slt i32 %..i, 0
  br i1 %mul.ov.i.i, label %32, label %st_mult.exit.i

32:                                               ; preds = %26
  tail call void (ptr, ...) @die(ptr noundef nonnull @.str.19, i64 noundef 16, i64 noundef %31) #22
  unreachable

st_mult.exit.i:                                   ; preds = %26
  %33 = load ptr, ptr %10, align 8, !tbaa !51
  %34 = shl nuw nsw i64 %31, 4
  %35 = tail call ptr @xrealloc(ptr noundef %33, i64 noundef %34) #21
  store ptr %35, ptr %10, align 8, !tbaa !51
  %.pre19.i = load i32, ptr %2, align 8, !tbaa !45
  br label %attr_check_append.exit

attr_check_append.exit:                           ; preds = %._crit_edge.i, %st_mult.exit.i
  %36 = phi i32 [ %24, %._crit_edge.i ], [ %.pre19.i, %st_mult.exit.i ]
  %37 = phi ptr [ %.pre.i, %._crit_edge.i ], [ %35, %st_mult.exit.i ]
  %38 = add nsw i32 %36, 1
  store i32 %38, ptr %2, align 8, !tbaa !45
  %39 = sext i32 %36 to i64
  %40 = getelementptr inbounds %struct.attr_check_item, ptr %37, i64 %39
  store ptr %23, ptr %40, align 8, !tbaa !52
  %41 = getelementptr inbounds nuw i8, ptr %40, i64 8
  store ptr %16, ptr %41, align 8, !tbaa !99
  %.pre = load i32, ptr %5, align 8, !tbaa !56
  br label %42

42:                                               ; preds = %11, %attr_check_append.exit
  %43 = phi i32 [ %12, %11 ], [ %.pre, %attr_check_append.exit ]
  %indvars.iv.next = add nuw nsw i64 %indvars.iv, 1
  %44 = sext i32 %43 to i64
  %45 = icmp slt i64 %indvars.iv.next, %44
  br i1 %45, label %11, label %._crit_edge, !llvm.loop !125

._crit_edge:                                      ; preds = %42, %3
  ret void
}